; Function Attrs: mustprogress uwtable
define void @_ZN3net24SpdyFramerVisitorAdapter9OnSettingENS_15SpdySettingsIdsEhj(ptr noundef nonnull readonly align 8 captures(none) dereferenceable(24) %0, i32 noundef %1, i8 noundef zeroext %2, i32 noundef %3) unnamed_addr #3 align 2 {
  %5 = getelementptr inbounds nuw i8, ptr %0, i64 8
  %6 = load ptr, ptr %5, align 8, !tbaa !15
  %7 = load ptr, ptr %6, align 8, !tbaa !3
  %8 = getelementptr inbounds nuw i8, ptr %7, i64 120
  %9 = load ptr, ptr %8, align 8
  tail call void %9(ptr noundef nonnull align 8 dereferenceable(8) %6, i32 noundef %1, i8 noundef zeroext %2, i32 noundef %3)
  ret void
}